target datalayout = "e-m:e-p270:32:32-p271:32:32-p272:64:64-i64:64-i128:128-f80:128-n8:16:32:64-S128"
target triple = "x86_64-pc-linux-gnu"

%struct.AVFilterContext = type { ptr, ptr, ptr, ptr, ptr, i32, ptr, ptr, i32, ptr, ptr, i32, i32, ptr, ptr, ptr, ptr, i32, ptr, i32, i32 }
%struct.BufferSinkContext = type { ptr, i32, i32, ptr, i32, ptr, i32, ptr, i32, ptr, i32, ptr, i32, ptr, i32, ptr, i32, ptr, i32, ptr, i32, ptr, i32, ptr, i32, ptr, i32, ptr }

; Function Attrs: nounwind uwtable
define internal i32 @asink_query_formats(ptr noundef %0, ptr noundef %1, ptr noundef %2) #0 {
  %4 = alloca i32, align 4
  %5 = alloca ptr, align 8
  %6 = alloca ptr, align 8
  %7 = alloca ptr, align 8
  %8 = alloca ptr, align 8
  %9 = alloca i32, align 4
  %10 = alloca i32, align 4
  %11 = alloca ptr, align 8
  %12 = alloca i32, align 4
  store ptr %0, ptr %5, align 8, !tbaa !4
  store ptr %1, ptr %6, align 8, !tbaa !88
  store ptr %2, ptr %7, align 8, !tbaa !88
  call void @llvm.lifetime.start.p0(i64 8, ptr %8) #9
  %13 = load ptr, ptr %5, align 8, !tbaa !4
  %14 = getelementptr inbounds nuw %struct.AVFilterContext, ptr %13, i32 0, i32 9
  %15 = load ptr, ptr %14, align 8, !tbaa !37
  store ptr %15, ptr %8, align 8, !tbaa !38
  call void @llvm.lifetime.start.p0(i64 4, ptr %9) #9
  %16 = load ptr, ptr %8, align 8, !tbaa !38
  %17 = getelementptr inbounds nuw %struct.BufferSinkContext, ptr %16, i32 0, i32 22
  %18 = load i32, ptr %17, align 8, !tbaa !102
  %19 = icmp ne i32 %18, 0
  br i1 %19, label %30, label %20

20:                                               ; preds = %3
  %21 = load ptr, ptr %8, align 8, !tbaa !38
  %22 = getelementptr inbounds nuw %struct.BufferSinkContext, ptr %21, i32 0, i32 24
  %23 = load i32, ptr %22, align 8, !tbaa !104
  %24 = icmp ne i32 %23, 0
  br i1 %24, label %30, label %25

25:                                               ; preds = %20
  %26 = load ptr, ptr %8, align 8, !tbaa !38
  %27 = getelementptr inbounds nuw %struct.BufferSinkContext, ptr %26, i32 0, i32 26
  %28 = load i32, ptr %27, align 8, !tbaa !106
  %29 = icmp ne i32 %28, 0
  br i1 %29, label %30, label %85

30:                                               ; preds = %25, %20, %3
  %31 = load ptr, ptr %8, align 8, !tbaa !38
  %32 = getelementptr inbounds nuw %struct.BufferSinkContext, ptr %31, i32 0, i32 22
  %33 = load i32, ptr %32, align 8, !tbaa !102
  %34 = icmp ne i32 %33, 0
  br i1 %34, label %35, label %48

35:                                               ; preds = %30
  %36 = load ptr, ptr %5, align 8, !tbaa !4
  %37 = load ptr, ptr %6, align 8, !tbaa !88
  %38 = load ptr, ptr %7, align 8, !tbaa !88
  %39 = load ptr, ptr %8, align 8, !tbaa !38
  %40 = getelementptr inbounds nuw %struct.BufferSinkContext, ptr %39, i32 0, i32 21
  %41 = load ptr, ptr %40, align 8, !tbaa !101
  %42 = call i32 @ff_set_common_formats_from_list2(ptr noundef %36, ptr noundef %37, ptr noundef %38, ptr noundef %41)
  store i32 %42, ptr %9, align 4, !tbaa !11
  %43 = load i32, ptr %9, align 4, !tbaa !11
  %44 = icmp slt i32 %43, 0
  br i1 %44, label %45, label %47

45:                                               ; preds = %35
  %46 = load i32, ptr %9, align 4, !tbaa !11
  store i32 %46, ptr %4, align 4
  store i32 1, ptr %10, align 4
  br label %192

47:                                               ; preds = %35
  br label %48

48:                                               ; preds = %47, %30
  %49 = load ptr, ptr %8, align 8, !tbaa !38
  %50 = getelementptr inbounds nuw %struct.BufferSinkContext, ptr %49, i32 0, i32 24
  %51 = load i32, ptr %50, align 8, !tbaa !104
  %52 = icmp ne i32 %51, 0
  br i1 %52, label %53, label %66

53:                                               ; preds = %48
  %54 = load ptr, ptr %5, align 8, !tbaa !4
  %55 = load ptr, ptr %6, align 8, !tbaa !88
  %56 = load ptr, ptr %7, align 8, !tbaa !88
  %57 = load ptr, ptr %8, align 8, !tbaa !38
  %58 = getelementptr inbounds nuw %struct.BufferSinkContext, ptr %57, i32 0, i32 23
  %59 = load ptr, ptr %58, align 8, !tbaa !103
  %60 = call i32 @ff_set_common_samplerates_from_list2(ptr noundef %54, ptr noundef %55, ptr noundef %56, ptr noundef %59)
  store i32 %60, ptr %9, align 4, !tbaa !11
  %61 = load i32, ptr %9, align 4, !tbaa !11
  %62 = icmp slt i32 %61, 0
  br i1 %62, label %63, label %65

63:                                               ; preds = %53
  %64 = load i32, ptr %9, align 4, !tbaa !11
  store i32 %64, ptr %4, align 4
  store i32 1, ptr %10, align 4
  br label %192

65:                                               ; preds = %53
  br label %66

66:                                               ; preds = %65, %48
  %67 = load ptr, ptr %8, align 8, !tbaa !38
  %68 = getelementptr inbounds nuw %struct.BufferSinkContext, ptr %67, i32 0, i32 26
  %69 = load i32, ptr %68, align 8, !tbaa !106
  %70 = icmp ne i32 %69, 0
  br i1 %70, label %71, label %84

71:                                               ; preds = %66
  %72 = load ptr, ptr %5, align 8, !tbaa !4
  %73 = load ptr, ptr %6, align 8, !tbaa !88
  %74 = load ptr, ptr %7, align 8, !tbaa !88
  %75 = load ptr, ptr %8, align 8, !tbaa !38
  %76 = getelementptr inbounds nuw %struct.BufferSinkContext, ptr %75, i32 0, i32 25
  %77 = load ptr, ptr %76, align 8, !tbaa !105
  %78 = call i32 @ff_set_common_channel_layouts_from_list2(ptr noundef %72, ptr noundef %73, ptr noundef %74, ptr noundef %77)
  store i32 %78, ptr %9, align 4, !tbaa !11
  %79 = load i32, ptr %9, align 4, !tbaa !11
  %80 = icmp slt i32 %79, 0
  br i1 %80, label %81, label %83

81:                                               ; preds = %71
  %82 = load i32, ptr %9, align 4, !tbaa !11
  store i32 %82, ptr %4, align 4
  store i32 1, ptr %10, align 4
  br label %192

83:                                               ; preds = %71
  br label %84

84:                                               ; preds = %83, %66
  br label %191

85:                                               ; preds = %25
  call void @llvm.lifetime.start.p0(i64 8, ptr %11) #9
  store ptr null, ptr %11, align 8, !tbaa !91
  call void @llvm.lifetime.start.p0(i64 4, ptr %12) #9
  %86 = load ptr, ptr %8, align 8, !tbaa !38
  %87 = getelementptr inbounds nuw %struct.BufferSinkContext, ptr %86, i32 0, i32 16
  %88 = load i32, ptr %87, align 8, !tbaa !107
  %89 = icmp ne i32 %88, 0
  br i1 %89, label %90, label %127

90:                                               ; preds = %85
  store i32 0, ptr %12, align 4, !tbaa !11
  br label %91

91:                                               ; preds = %114, %90
  %92 = load i32, ptr %12, align 4, !tbaa !11
  %93 = zext i32 %92 to i64
  %94 = load ptr, ptr %8, align 8, !tbaa !38
  %95 = getelementptr inbounds nuw %struct.BufferSinkContext, ptr %94, i32 0, i32 16
  %96 = load i32, ptr %95, align 8, !tbaa !107
  %97 = sext i32 %96 to i64
  %98 = udiv i64 %97, 4
  %99 = icmp ult i64 %93, %98
  br i1 %99, label %100, label %117

100:                                              ; preds = %91
  %101 = load ptr, ptr %8, align 8, !tbaa !38
  %102 = getelementptr inbounds nuw %struct.BufferSinkContext, ptr %101, i32 0, i32 15
  %103 = load ptr, ptr %102, align 8, !tbaa !108
  %104 = load i32, ptr %12, align 4, !tbaa !11
  %105 = zext i32 %104 to i64
  %106 = getelementptr inbounds nuw i32, ptr %103, i64 %105
  %107 = load i32, ptr %106, align 4, !tbaa !11
  %108 = sext i32 %107 to i64
  %109 = call i32 @ff_add_format(ptr noundef %11, i64 noundef %108)
  store i32 %109, ptr %9, align 4, !tbaa !11
  %110 = icmp slt i32 %109, 0
  br i1 %110, label %111, label %113

111:                                              ; preds = %100
  %112 = load i32, ptr %9, align 4, !tbaa !11
  store i32 %112, ptr %4, align 4
  store i32 1, ptr %10, align 4
  br label %188

113:                                              ; preds = %100
  br label %114

114:                                              ; preds = %113
  %115 = load i32, ptr %12, align 4, !tbaa !11
  %116 = add i32 %115, 1
  store i32 %116, ptr %12, align 4, !tbaa !11
  br label %91, !llvm.loop !109

117:                                              ; preds = %91
  %118 = load ptr, ptr %5, align 8, !tbaa !4
  %119 = load ptr, ptr %6, align 8, !tbaa !88
  %120 = load ptr, ptr %7, align 8, !tbaa !88
  %121 = load ptr, ptr %11, align 8, !tbaa !91
  %122 = call i32 @ff_set_common_formats2(ptr noundef %118, ptr noundef %119, ptr noundef %120, ptr noundef %121)
  store i32 %122, ptr %9, align 4, !tbaa !11
  %123 = icmp slt i32 %122, 0
  br i1 %123, label %124, label %126

124:                                              ; preds = %117
  %125 = load i32, ptr %9, align 4, !tbaa !11
  store i32 %125, ptr %4, align 4
  store i32 1, ptr %10, align 4
  br label %188

126:                                              ; preds = %117
  br label %127

127:                                              ; preds = %126, %85
  %128 = load ptr, ptr %8, align 8, !tbaa !38
  %129 = getelementptr inbounds nuw %struct.BufferSinkContext, ptr %128, i32 0, i32 26
  %130 = load i32, ptr %129, align 8, !tbaa !106
  %131 = icmp ne i32 %130, 0
  br i1 %131, label %132, label %145

132:                                              ; preds = %127
  %133 = load ptr, ptr %5, align 8, !tbaa !4
  %134 = load ptr, ptr %6, align 8, !tbaa !88
  %135 = load ptr, ptr %7, align 8, !tbaa !88
  %136 = load ptr, ptr %8, align 8, !tbaa !38
  %137 = getelementptr inbounds nuw %struct.BufferSinkContext, ptr %136, i32 0, i32 25
  %138 = load ptr, ptr %137, align 8, !tbaa !105
  %139 = call i32 @ff_set_common_channel_layouts_from_list2(ptr noundef %133, ptr noundef %134, ptr noundef %135, ptr noundef %138)
  store i32 %139, ptr %9, align 4, !tbaa !11
  %140 = load i32, ptr %9, align 4, !tbaa !11
  %141 = icmp slt i32 %140, 0
  br i1 %141, label %142, label %144

142:                                              ; preds = %132
  %143 = load i32, ptr %9, align 4, !tbaa !11
  store i32 %143, ptr %4, align 4
  store i32 1, ptr %10, align 4
  br label %188

144:                                              ; preds = %132
  br label %145

145:                                              ; preds = %144, %127
  %146 = load ptr, ptr %8, align 8, !tbaa !38
  %147 = getelementptr inbounds nuw %struct.BufferSinkContext, ptr %146, i32 0, i32 20
  %148 = load i32, ptr %147, align 8, !tbaa !110
  %149 = icmp ne i32 %148, 0
  br i1 %149, label %150, label %187

150:                                              ; preds = %145
  store ptr null, ptr %11, align 8, !tbaa !91
  store i32 0, ptr %12, align 4, !tbaa !11
  br label %151

151:                                              ; preds = %174, %150
  %152 = load i32, ptr %12, align 4, !tbaa !11
  %153 = zext i32 %152 to i64
  %154 = load ptr, ptr %8, align 8, !tbaa !38
  %155 = getelementptr inbounds nuw %struct.BufferSinkContext, ptr %154, i32 0, i32 20
  %156 = load i32, ptr %155, align 8, !tbaa !110
  %157 = sext i32 %156 to i64
  %158 = udiv i64 %157, 4
  %159 = icmp ult i64 %153, %158
  br i1 %159, label %160, label %177

160:                                              ; preds = %151
  %161 = load ptr, ptr %8, align 8, !tbaa !38
  %162 = getelementptr inbounds nuw %struct.BufferSinkContext, ptr %161, i32 0, i32 19
  %163 = load ptr, ptr %162, align 8, !tbaa !111
  %164 = load i32, ptr %12, align 4, !tbaa !11
  %165 = zext i32 %164 to i64
  %166 = getelementptr inbounds nuw i32, ptr %163, i64 %165
  %167 = load i32, ptr %166, align 4, !tbaa !11
  %168 = sext i32 %167 to i64
  %169 = call i32 @ff_add_format(ptr noundef %11, i64 noundef %168)
  store i32 %169, ptr %9, align 4, !tbaa !11
  %170 = icmp slt i32 %169, 0
  br i1 %170, label %171, label %173

171:                                              ; preds = %160
  %172 = load i32, ptr %9, align 4, !tbaa !11
  store i32 %172, ptr %4, align 4
  store i32 1, ptr %10, align 4
  br label %188

173:                                              ; preds = %160
  br label %174

174:                                              ; preds = %173
  %175 = load i32, ptr %12, align 4, !tbaa !11
  %176 = add i32 %175, 1
  store i32 %176, ptr %12, align 4, !tbaa !11
  br label %151, !llvm.loop !112

177:                                              ; preds = %151
  %178 = load ptr, ptr %5, align 8, !tbaa !4
  %179 = load ptr, ptr %6, align 8, !tbaa !88
  %180 = load ptr, ptr %7, align 8, !tbaa !88
  %181 = load ptr, ptr %11, align 8, !tbaa !91
  %182 = call i32 @ff_set_common_samplerates2(ptr noundef %178, ptr noundef %179, ptr noundef %180, ptr noundef %181)
  store i32 %182, ptr %9, align 4, !tbaa !11
  %183 = icmp slt i32 %182, 0
  br i1 %183, label %184, label %186

184:                                              ; preds = %177
  %185 = load i32, ptr %9, align 4, !tbaa !11
  store i32 %185, ptr %4, align 4
  store i32 1, ptr %10, align 4
  br label %188

186:                                              ; preds = %177
  br label %187

187:                                              ; preds = %186, %145
  store i32 0, ptr %10, align 4
  br label %188

188:                                              ; preds = %187, %184, %171, %142, %124, %111
  call void @llvm.lifetime.end.p0(i64 4, ptr %12) #9
  call void @llvm.lifetime.end.p0(i64 8, ptr %11) #9
  %189 = load i32, ptr %10, align 4
  switch i32 %189, label %192 [
    i32 0, label %190
  ]

190:                                              ; preds = %188
  br label %191

191:                                              ; preds = %190, %84
  store i32 0, ptr %4, align 4
  store i32 1, ptr %10, align 4
  br label %192

192:                                              ; preds = %191, %188, %81, %63, %45
  call void @llvm.lifetime.end.p0(i64 4, ptr %9) #9
  call void @llvm.lifetime.end.p0(i64 8, ptr %8) #9
  %193 = load i32, ptr %4, align 4
  ret i32 %193
}