; Function Attrs: nounwind uwtable
define internal range(i32 -2147483648, 1) i32 @asink_query_formats(ptr noundef %0, ptr noundef %1, ptr noundef %2) #0 {
  %4 = alloca ptr, align 8
  %5 = getelementptr inbounds nuw i8, ptr %0, i64 72
  %6 = load ptr, ptr %5, align 8, !tbaa !33
  %7 = getelementptr inbounds nuw i8, ptr %6, i64 168
  %8 = load i32, ptr %7, align 8, !tbaa !90
  %.not = icmp eq i32 %8, 0
  br i1 %.not, label %9, label %15

9:                                                ; preds = %3
  %10 = getelementptr inbounds nuw i8, ptr %6, i64 184
  %11 = load i32, ptr %10, align 8, !tbaa !92
  %.not68 = icmp eq i32 %11, 0
  br i1 %.not68, label %12, label %.thread.thread97

12:                                               ; preds = %9
  %13 = getelementptr inbounds nuw i8, ptr %6, i64 200
  %14 = load i32, ptr %13, align 8, !tbaa !94
  %.not69 = icmp eq i32 %14, 0
  br i1 %.not69, label %32, label %.thread.thread

15:                                               ; preds = %3
  %16 = getelementptr inbounds nuw i8, ptr %6, i64 160
  %17 = load ptr, ptr %16, align 8, !tbaa !89
  %18 = tail call i32 @ff_set_common_formats_from_list2(ptr noundef nonnull %0, ptr noundef %1, ptr noundef %2, ptr noundef %17) #10
  %19 = icmp slt i32 %18, 0
  br i1 %19, label %85, label %.thread

.thread:                                          ; preds = %15
  %.phi.trans.insert = getelementptr inbounds nuw i8, ptr %6, i64 184
  %.pre = load i32, ptr %.phi.trans.insert, align 8, !tbaa !92
  %20 = icmp eq i32 %.pre, 0
  br i1 %20, label %.thread.thread, label %.thread.thread97

.thread.thread97:                                 ; preds = %9, %.thread
  %21 = getelementptr inbounds nuw i8, ptr %6, i64 176
  %22 = load ptr, ptr %21, align 8, !tbaa !91
  %23 = tail call i32 @ff_set_common_samplerates_from_list2(ptr noundef nonnull %0, ptr noundef %1, ptr noundef %2, ptr noundef %22) #10
  %24 = icmp slt i32 %23, 0
  br i1 %24, label %85, label %.thread.thread

.thread.thread:                                   ; preds = %12, %.thread.thread97, %.thread
  %25 = getelementptr inbounds nuw i8, ptr %6, i64 200
  %26 = load i32, ptr %25, align 8, !tbaa !94
  %.not75 = icmp eq i32 %26, 0
  br i1 %.not75, label %84, label %27

27:                                               ; preds = %.thread.thread
  %28 = getelementptr inbounds nuw i8, ptr %6, i64 192
  %29 = load ptr, ptr %28, align 8, !tbaa !93
  %30 = tail call i32 @ff_set_common_channel_layouts_from_list2(ptr noundef nonnull %0, ptr noundef %1, ptr noundef %2, ptr noundef %29) #10
  %31 = icmp slt i32 %30, 0
  br i1 %31, label %85, label %84

32:                                               ; preds = %12
  call void @llvm.lifetime.start.p0(i64 8, ptr nonnull %4) #10
  store ptr null, ptr %4, align 8, !tbaa !79
  %33 = getelementptr inbounds nuw i8, ptr %6, i64 120
  %34 = load i32, ptr %33, align 8, !tbaa !95
  %.not70 = icmp eq i32 %34, 0
  br i1 %.not70, label %.thread99, label %.preheader

.preheader:                                       ; preds = %32
  %.not87 = icmp ult i32 %34, 4
  br i1 %.not87, label %._crit_edge, label %.lr.ph

.lr.ph:                                           ; preds = %.preheader
  %35 = getelementptr inbounds nuw i8, ptr %6, i64 112
  br label %43

36:                                               ; preds = %43
  %37 = add i32 %.082, 1
  %38 = zext i32 %37 to i64
  %39 = load i32, ptr %33, align 8, !tbaa !95
  %40 = sext i32 %39 to i64
  %41 = lshr i64 %40, 2
  %42 = icmp samesign ugt i64 %41, %38
  br i1 %42, label %43, label %._crit_edge.loopexit, !llvm.loop !96

43:                                               ; preds = %.lr.ph, %36
  %44 = phi i64 [ 0, %.lr.ph ], [ %38, %36 ]
  %.082 = phi i32 [ 0, %.lr.ph ], [ %37, %36 ]
  %45 = load ptr, ptr %35, align 8, !tbaa !97
  %46 = getelementptr inbounds nuw i32, ptr %45, i64 %44
  %47 = load i32, ptr %46, align 4, !tbaa !47
  %48 = sext i32 %47 to i64
  %49 = call i32 @ff_add_format(ptr noundef nonnull %4, i64 noundef %48) #10
  %50 = icmp slt i32 %49, 0
  br i1 %50, label %.thread77, label %36

._crit_edge.loopexit:                             ; preds = %36
  %.pre93 = load ptr, ptr %4, align 8, !tbaa !79
  br label %._crit_edge

._crit_edge:                                      ; preds = %._crit_edge.loopexit, %.preheader
  %51 = phi ptr [ %.pre93, %._crit_edge.loopexit ], [ null, %.preheader ]
  %52 = call i32 @ff_set_common_formats2(ptr noundef %0, ptr noundef %1, ptr noundef %2, ptr noundef %51) #10
  %53 = icmp slt i32 %52, 0
  br i1 %53, label %.thread77, label %54

54:                                               ; preds = %._crit_edge
  %.pre94 = load i32, ptr %13, align 8, !tbaa !94
  %55 = icmp eq i32 %.pre94, 0
  br i1 %55, label %.thread99, label %56

56:                                               ; preds = %54
  %57 = getelementptr inbounds nuw i8, ptr %6, i64 192
  %58 = load ptr, ptr %57, align 8, !tbaa !93
  %59 = call i32 @ff_set_common_channel_layouts_from_list2(ptr noundef %0, ptr noundef %1, ptr noundef %2, ptr noundef %58) #10
  %60 = icmp slt i32 %59, 0
  br i1 %60, label %.thread77, label %.thread99

.thread99:                                        ; preds = %32, %56, %54
  %61 = getelementptr inbounds nuw i8, ptr %6, i64 152
  %62 = load i32, ptr %61, align 8, !tbaa !98
  %.not72 = icmp eq i32 %62, 0
  br i1 %.not72, label %83, label %63

63:                                               ; preds = %.thread99
  store ptr null, ptr %4, align 8, !tbaa !79
  %.not88 = icmp ult i32 %62, 4
  br i1 %.not88, label %._crit_edge86, label %.lr.ph85

.lr.ph85:                                         ; preds = %63
  %64 = getelementptr inbounds nuw i8, ptr %6, i64 144
  br label %72

65:                                               ; preds = %72
  %66 = add i32 %.183, 1
  %67 = zext i32 %66 to i64
  %68 = load i32, ptr %61, align 8, !tbaa !98
  %69 = sext i32 %68 to i64
  %70 = lshr i64 %69, 2
  %71 = icmp samesign ugt i64 %70, %67
  br i1 %71, label %72, label %._crit_edge86.loopexit, !llvm.loop !99

72:                                               ; preds = %.lr.ph85, %65
  %73 = phi i64 [ 0, %.lr.ph85 ], [ %67, %65 ]
  %.183 = phi i32 [ 0, %.lr.ph85 ], [ %66, %65 ]
  %74 = load ptr, ptr %64, align 8, !tbaa !100
  %75 = getelementptr inbounds nuw i32, ptr %74, i64 %73
  %76 = load i32, ptr %75, align 4, !tbaa !47
  %77 = sext i32 %76 to i64
  %78 = call i32 @ff_add_format(ptr noundef nonnull %4, i64 noundef %77) #10
  %79 = icmp slt i32 %78, 0
  br i1 %79, label %.thread77, label %65

._crit_edge86.loopexit:                           ; preds = %65
  %.pre95 = load ptr, ptr %4, align 8, !tbaa !79
  br label %._crit_edge86

._crit_edge86:                                    ; preds = %._crit_edge86.loopexit, %63
  %80 = phi ptr [ %.pre95, %._crit_edge86.loopexit ], [ null, %63 ]
  %81 = call i32 @ff_set_common_samplerates2(ptr noundef %0, ptr noundef %1, ptr noundef %2, ptr noundef %80) #10
  %82 = icmp slt i32 %81, 0
  br i1 %82, label %.thread77, label %83

.thread77:                                        ; preds = %43, %72, %._crit_edge, %56, %._crit_edge86
  %.157.ph = phi i32 [ %81, %._crit_edge86 ], [ %59, %56 ], [ %52, %._crit_edge ], [ %78, %72 ], [ %49, %43 ]
  call void @llvm.lifetime.end.p0(i64 8, ptr nonnull %4) #10
  br label %85

83:                                               ; preds = %.thread99, %._crit_edge86
  call void @llvm.lifetime.end.p0(i64 8, ptr nonnull %4) #10
  br label %84

84:                                               ; preds = %83, %.thread.thread, %27
  br label %85

85:                                               ; preds = %.thread77, %27, %.thread.thread97, %15, %84
  %.056 = phi i32 [ 0, %84 ], [ %18, %15 ], [ %23, %.thread.thread97 ], [ %30, %27 ], [ %.157.ph, %.thread77 ]
  ret i32 %.056
}